; Function Attrs: nounwind uwtable
define range(i32 -1, 1) i32 @H5Gset_comment(i64 noundef %0, ptr noundef %1, ptr noundef %2) local_unnamed_addr #1 {
  %4 = alloca %struct.H5VL_optional_args_t, align 8
  %5 = alloca %union.H5VL_native_object_optional_args_t, align 8
  %6 = alloca %struct.H5VL_loc_params_t, align 8
  %7 = load i8, ptr @H5_libinit_g, align 1
  %8 = trunc i8 %7 to i1
  %9 = load i8, ptr @H5_libterm_g, align 1
  %10 = trunc i8 %9 to i1
  %11 = select i1 %8, i1 true, i1 %10
  br i1 %11, label %19, label %12

12:                                               ; preds = %3
  %13 = tail call i32 @H5_init_library() #4
  %14 = icmp slt i32 %13, 0
  br i1 %14, label %15, label %19

15:                                               ; preds = %12
  %16 = load i64, ptr @H5E_FUNC_g, align 8
  %17 = load i64, ptr @H5E_CANTINIT_g, align 8
  %18 = tail call i32 (ptr, ptr, i32, i64, i64, ptr, ...) @H5E_printf_stack(ptr noundef nonnull @.str, ptr noundef nonnull @__func__.H5Gset_comment, i32 noundef 677, i64 noundef %16, i64 noundef %17, ptr noundef nonnull @.str.1) #4
  br label %.thread29

19:                                               ; preds = %12, %3
  %20 = tail call i32 @H5CX_push() #4
  %21 = icmp slt i32 %20, 0
  br i1 %21, label %22, label %26

22:                                               ; preds = %19
  %23 = load i64, ptr @H5E_FUNC_g, align 8
  %24 = load i64, ptr @H5E_CANTSET_g, align 8
  %25 = tail call i32 (ptr, ptr, i32, i64, i64, ptr, ...) @H5E_printf_stack(ptr noundef nonnull @.str, ptr noundef nonnull @__func__.H5Gset_comment, i32 noundef 677, i64 noundef %23, i64 noundef %24, ptr noundef nonnull @.str.2) #4
  br label %.thread29

26:                                               ; preds = %19
  %27 = tail call i32 @H5E_clear_stack() #4
  %.not = icmp eq ptr %1, null
  br i1 %.not, label %30, label %28

28:                                               ; preds = %26
  %29 = load i8, ptr %1, align 1
  %.not20 = icmp eq i8 %29, 0
  br i1 %.not20, label %30, label %34

30:                                               ; preds = %26, %28
  %31 = load i64, ptr @H5E_ARGS_g, align 8
  %32 = load i64, ptr @H5E_BADVALUE_g, align 8
  %33 = tail call i32 (ptr, ptr, i32, i64, i64, ptr, ...) @H5E_printf_stack(ptr noundef nonnull @.str, ptr noundef nonnull @__func__.H5Gset_comment, i32 noundef 680, i64 noundef %31, i64 noundef %32, ptr noundef nonnull @.str.26) #4
  br label %.thread35

34:                                               ; preds = %28
  %35 = tail call i32 @H5CX_set_loc(i64 noundef %0) #4
  %36 = icmp slt i32 %35, 0
  br i1 %36, label %37, label %41

37:                                               ; preds = %34
  %38 = load i64, ptr @H5E_SYM_g, align 8
  %39 = load i64, ptr @H5E_CANTSET_g, align 8
  %40 = tail call i32 (ptr, ptr, i32, i64, i64, ptr, ...) @H5E_printf_stack(ptr noundef nonnull @.str, ptr noundef nonnull @__func__.H5Gset_comment, i32 noundef 684, i64 noundef %38, i64 noundef %39, ptr noundef nonnull @.str.10) #4
  br label %.thread35

41:                                               ; preds = %34
  %42 = getelementptr inbounds i8, ptr %6, i64 4
  store i32 1, ptr %42, align 4
  %43 = getelementptr inbounds i8, ptr %6, i64 8
  store ptr %1, ptr %43, align 8
  %44 = load i64, ptr @H5P_LST_LINK_ACCESS_ID_g, align 8
  %45 = getelementptr inbounds i8, ptr %6, i64 16
  store i64 %44, ptr %45, align 8
  %46 = tail call i32 @H5I_get_type(i64 noundef %0) #4
  store i32 %46, ptr %6, align 8
  %47 = tail call ptr @H5VL_vol_object(i64 noundef %0) #4
  %48 = icmp eq ptr %47, null
  br i1 %48, label %49, label %53

49:                                               ; preds = %41
  %50 = load i64, ptr @H5E_ARGS_g, align 8
  %51 = load i64, ptr @H5E_BADTYPE_g, align 8
  %52 = tail call i32 (ptr, ptr, i32, i64, i64, ptr, ...) @H5E_printf_stack(ptr noundef nonnull @.str, ptr noundef nonnull @__func__.H5Gset_comment, i32 noundef 694, i64 noundef %50, i64 noundef %51, ptr noundef nonnull @.str.11) #4
  br label %.thread35

53:                                               ; preds = %41
  store ptr %2, ptr %5, align 8
  store i32 1, ptr %4, align 8
  %54 = getelementptr inbounds i8, ptr %4, i64 8
  store ptr %5, ptr %54, align 8
  %55 = load i64, ptr @H5P_LST_DATASET_XFER_ID_g, align 8
  %56 = call i32 @H5VL_object_optional(ptr noundef nonnull %47, ptr noundef nonnull %6, ptr noundef nonnull %4, i64 noundef %55, ptr noundef null) #4
  %57 = icmp slt i32 %56, 0
  br i1 %57, label %58, label %63

58:                                               ; preds = %53
  %59 = load i64, ptr @H5E_SYM_g, align 8
  %60 = load i64, ptr @H5E_CANTSET_g, align 8
  %61 = call i32 (ptr, ptr, i32, i64, i64, ptr, ...) @H5E_printf_stack(ptr noundef nonnull @.str, ptr noundef nonnull @__func__.H5Gset_comment, i32 noundef 704, i64 noundef %59, i64 noundef %60, ptr noundef nonnull @.str.28) #4
  br label %.thread35

.thread35:                                        ; preds = %30, %58, %49, %37
  %62 = call i32 @H5CX_pop(i1 noundef zeroext true) #4
  br label %.thread29

63:                                               ; preds = %53
  %64 = call i32 @H5CX_pop(i1 noundef zeroext true) #4
  br label %66

.thread29:                                        ; preds = %22, %15, %.thread35
  %65 = call i32 @H5E_dump_api_stack() #4
  br label %66

66:                                               ; preds = %63, %.thread29
  %.0172432 = phi i32 [ -1, %.thread29 ], [ 0, %63 ]
  ret i32 %.0172432
}